target datalayout = "e-m:e-p270:32:32-p271:32:32-p272:64:64-i64:64-i128:128-f80:128-n8:16:32:64-S128"
target triple = "x86_64-unknown-linux-gnu"

%"class.icu_75::OlsonTimeZone" = type { %"class.icu_75::BasicTimeZone", i16, i16, i16, ptr, ptr, ptr, i16, ptr, ptr, ptr, double, i32, ptr, ptr, ptr, i16, ptr, ptr, i16, ptr, %"struct.icu_75::UInitOnce" }
%"class.icu_75::BasicTimeZone" = type { %"class.icu_75::TimeZone" }
%"class.icu_75::TimeZone" = type { %"class.icu_75::UObject", %"class.icu_75::UnicodeString" }
%"class.icu_75::UObject" = type { ptr }
%"class.icu_75::UnicodeString" = type { %"class.icu_75::Replaceable", %"union.icu_75::UnicodeString::StackBufferOrFields" }
%"class.icu_75::Replaceable" = type { %"class.icu_75::UObject" }
%"union.icu_75::UnicodeString::StackBufferOrFields" = type { %struct.anon.0, [32 x i8] }
%struct.anon.0 = type { i16, i32, i32, ptr }
%"struct.icu_75::UInitOnce" = type { %"struct.std::atomic", i32 }
%"struct.std::atomic" = type { %"struct.std::__atomic_base" }
%"struct.std::__atomic_base" = type { i32 }

@_ZN6icu_75L5ZEROSE = internal constant [2 x i32] zeroinitializer, align 4

; Function Attrs: mustprogress nounwind uwtable
define void @_ZN6icu_7513OlsonTimeZone14constructEmptyEv(ptr noundef nonnull align 8 dereferenceable(224) %this) #0 align 2 {
entry:
  %this.addr = alloca ptr, align 8
  store ptr %this, ptr %this.addr, align 8
  %this1 = load ptr, ptr %this.addr, align 8
  %canonicalID = getelementptr inbounds %"class.icu_75::OlsonTimeZone", ptr %this1, i32 0, i32 13
  store ptr null, ptr %canonicalID, align 8
  %transitionCountPost32 = getelementptr inbounds %"class.icu_75::OlsonTimeZone", ptr %this1, i32 0, i32 3
  store i16 0, ptr %transitionCountPost32, align 4
  %transitionCount32 = getelementptr inbounds %"class.icu_75::OlsonTimeZone", ptr %this1, i32 0, i32 2
  store i16 0, ptr %transitionCount32, align 2
  %transitionCountPre32 = getelementptr inbounds %"class.icu_75::OlsonTimeZone", ptr %this1, i32 0, i32 1
  store i16 0, ptr %transitionCountPre32, align 8
  %transitionTimesPost32 = getelementptr inbounds %"class.icu_75::OlsonTimeZone", ptr %this1, i32 0, i32 6
  store ptr null, ptr %transitionTimesPost32, align 8
  %transitionTimes32 = getelementptr inbounds %"class.icu_75::OlsonTimeZone", ptr %this1, i32 0, i32 5
  store ptr null, ptr %transitionTimes32, align 8
  %transitionTimesPre32 = getelementptr inbounds %"class.icu_75::OlsonTimeZone", ptr %this1, i32 0, i32 4
  store ptr null, ptr %transitionTimesPre32, align 8
  %typeMapData = getelementptr inbounds %"class.icu_75::OlsonTimeZone", ptr %this1, i32 0, i32 9
  store ptr null, ptr %typeMapData, align 8
  %typeCount = getelementptr inbounds %"class.icu_75::OlsonTimeZone", ptr %this1, i32 0, i32 7
  store i16 1, ptr %typeCount, align 8
  %typeOffsets = getelementptr inbounds %"class.icu_75::OlsonTimeZone", ptr %this1, i32 0, i32 8
  store ptr @_ZN6icu_75L5ZEROSE, ptr %typeOffsets, align 8
  %finalZone = getelementptr inbounds %"class.icu_75::OlsonTimeZone", ptr %this1, i32 0, i32 10
  store ptr null, ptr %finalZone, align 8
  ret void
}