; Function Attrs: mustprogress nofree norecurse nosync nounwind willreturn memory(argmem: write) uwtable
define void @_ZN6icu_7513OlsonTimeZone14constructEmptyEv(ptr nocapture noundef nonnull writeonly align 8 dereferenceable(224) %this) local_unnamed_addr #1 align 2 {
entry:
  %canonicalID = getelementptr inbounds i8, ptr %this, i64 152
  store ptr null, ptr %canonicalID, align 8
  %transitionCountPost32 = getelementptr inbounds i8, ptr %this, i64 76
  store i16 0, ptr %transitionCountPost32, align 4
  %transitionCount32 = getelementptr inbounds i8, ptr %this, i64 74
  store i16 0, ptr %transitionCount32, align 2
  %transitionCountPre32 = getelementptr inbounds i8, ptr %this, i64 72
  store i16 0, ptr %transitionCountPre32, align 8
  %transitionTimesPre32 = getelementptr inbounds i8, ptr %this, i64 80
  %typeMapData = getelementptr inbounds i8, ptr %this, i64 120
  store ptr null, ptr %typeMapData, align 8
  %typeCount = getelementptr inbounds i8, ptr %this, i64 104
  tail call void @llvm.memset.p0.i64(ptr noundef nonnull align 8 dereferenceable(24) %transitionTimesPre32, i8 0, i64 24, i1 false)
  store i16 1, ptr %typeCount, align 8
  %typeOffsets = getelementptr inbounds i8, ptr %this, i64 112
  store ptr @_ZN6icu_75L5ZEROSE, ptr %typeOffsets, align 8
  %finalZone = getelementptr inbounds i8, ptr %this, i64 128
  store ptr null, ptr %finalZone, align 8
  ret void
}